target datalayout = "e-m:e-p270:32:32-p271:32:32-p272:64:64-i64:64-i128:128-f80:128-n8:16:32:64-S128"
target triple = "x86_64-pc-linux-gnu"

%class.GraphAlg = type { ptr, ptr }
%class.V3GraphVertex = type { ptr, %class.V3ListLinks, %class.V3List, %class.V3List.0, double, i32, i32, %union.anon }
%class.V3ListLinks = type { ptr, ptr }
%class.V3List = type { ptr, ptr }
%class.V3List.0 = type { ptr, ptr }
%union.anon = type { ptr }
%"class.V3List<V3GraphVertex, &V3GraphVertex::links>::SimpleItertatorImpl" = type { ptr }
%class.V3Graph = type { ptr, %class.V3List.7 }
%class.V3List.7 = type { ptr, ptr }

; Function Attrs: noreturn nounwind uwtable
define linkonce_odr hidden void @__clang_call_terminate(ptr noundef %0) #10 comdat {
  %2 = call ptr @__cxa_begin_catch(ptr %0) #3
  call void @_ZSt9terminatev() #17
  unreachable
}

; Function Attrs: mustprogress nounwind uwtable
define linkonce_odr dso_local void @_ZN13V3GraphVertex5userpEPv(ptr noundef nonnull align 8 dereferenceable(80) %0, ptr noundef %1) #7 comdat align 2 {
  %3 = alloca ptr, align 8
  %4 = alloca ptr, align 8
  store ptr %0, ptr %3, align 8
  store ptr %1, ptr %4, align 8
  %5 = load ptr, ptr %3, align 8
  %6 = load ptr, ptr %4, align 8
  %7 = getelementptr inbounds %class.V3GraphVertex, ptr %5, i32 0, i32 7
  store ptr %6, ptr %7, align 8
  ret void
}

; Function Attrs: mustprogress nounwind uwtable
define linkonce_odr dso_local noundef ptr @_ZNK13V3GraphVertex5userpEv(ptr noundef nonnull align 8 dereferenceable(80) %0) #7 comdat align 2 {
  %2 = alloca ptr, align 8
  store ptr %0, ptr %2, align 8
  %3 = load ptr, ptr %2, align 8
  %4 = getelementptr inbounds %class.V3GraphVertex, ptr %3, i32 0, i32 7
  %5 = load ptr, ptr %4, align 8
  ret ptr %5
}

; Function Attrs: mustprogress nounwind uwtable
define linkonce_odr dso_local noundef nonnull align 8 dereferenceable(16) ptr @_ZN13V3GraphVertex5linksEv(ptr noundef nonnull align 8 dereferenceable(80) %0) #7 comdat align 2 {
  %2 = alloca ptr, align 8
  store ptr %0, ptr %2, align 8
  %3 = load ptr, ptr %2, align 8
  %4 = getelementptr inbounds %class.V3GraphVertex, ptr %3, i32 0, i32 1
  ret ptr %4
}

; Function Attrs: mustprogress uwtable
define linkonce_odr dso_local ptr @_ZN6V3ListI13V3GraphVertexXadL_ZNS0_5linksEvEES0_E3endEv(ptr noundef nonnull align 8 dereferenceable(16) %0) #4 comdat align 2 {
  %2 = alloca ptr, align 8
  %3 = alloca ptr, align 8
  %4 = alloca %"class.V3List<V3GraphVertex, &V3GraphVertex::links>::SimpleItertatorImpl", align 8
  %5 = alloca ptr, align 8
  store ptr %0, ptr %5, align 8
  store ptr %4, ptr %2, align 8
  store ptr null, ptr %3, align 8
  %6 = load ptr, ptr %2, align 8
  %7 = load ptr, ptr %3, align 8
  store ptr %7, ptr %6, align 8
  %8 = getelementptr inbounds %"class.V3List<V3GraphVertex, &V3GraphVertex::links>::SimpleItertatorImpl", ptr %4, i32 0, i32 0
  %9 = load ptr, ptr %8, align 8
  ret ptr %9
}

; Function Attrs: mustprogress uwtable
define linkonce_odr dso_local ptr @_ZN6V3ListI13V3GraphVertexXadL_ZNS0_5linksEvEES0_E5beginEv(ptr noundef nonnull align 8 dereferenceable(16) %0) #4 comdat align 2 {
  %2 = alloca ptr, align 8
  %3 = alloca ptr, align 8
  %4 = alloca %"class.V3List<V3GraphVertex, &V3GraphVertex::links>::SimpleItertatorImpl", align 8
  %5 = alloca ptr, align 8
  store ptr %0, ptr %5, align 8
  %6 = load ptr, ptr %5, align 8
  %7 = getelementptr inbounds %class.V3List.7, ptr %6, i32 0, i32 0
  %8 = load ptr, ptr %7, align 8
  store ptr %4, ptr %2, align 8
  store ptr %8, ptr %3, align 8
  %9 = load ptr, ptr %2, align 8
  %10 = load ptr, ptr %3, align 8
  store ptr %10, ptr %9, align 8
  %11 = getelementptr inbounds %"class.V3List<V3GraphVertex, &V3GraphVertex::links>::SimpleItertatorImpl", ptr %4, i32 0, i32 0
  %12 = load ptr, ptr %11, align 8
  ret ptr %12
}

; Function Attrs: mustprogress nounwind uwtable
define linkonce_odr dso_local noundef nonnull align 8 dereferenceable(16) ptr @_ZN7V3Graph8verticesEv(ptr noundef nonnull align 8 dereferenceable(24) %0) #7 comdat align 2 {
  %2 = alloca ptr, align 8
  store ptr %0, ptr %2, align 8
  %3 = load ptr, ptr %2, align 8
  %4 = getelementptr inbounds %class.V3Graph, ptr %3, i32 0, i32 1
  ret ptr %4
}

; Function Attrs: mustprogress nounwind uwtable
define dso_local void @_ZN16GraphPathCheckerD2Ev(ptr noundef nonnull align 8 dereferenceable(24) %0) unnamed_addr #7 align 2 personality ptr @__gxx_personality_v0 {
  %2 = alloca ptr, align 8
  %3 = alloca ptr, align 8
  %4 = alloca ptr, align 8
  %5 = alloca ptr, align 8
  %6 = alloca ptr, align 8
  %7 = alloca ptr, align 8
  %8 = alloca ptr, align 8
  %9 = alloca ptr, align 8
  %10 = alloca ptr, align 8
  %11 = alloca ptr, align 8
  %12 = alloca ptr, align 8
  %13 = alloca ptr, align 8
  %14 = alloca %"class.V3List<V3GraphVertex, &V3GraphVertex::links>::SimpleItertatorImpl", align 8
  %15 = alloca %"class.V3List<V3GraphVertex, &V3GraphVertex::links>::SimpleItertatorImpl", align 8
  %16 = alloca ptr, align 8
  %17 = alloca ptr, align 8
  store ptr %0, ptr %12, align 8
  %18 = load ptr, ptr %12, align 8
  %19 = getelementptr inbounds %class.GraphAlg, ptr %18, i32 0, i32 0
  %20 = load ptr, ptr %19, align 8
  %21 = invoke noundef nonnull align 8 dereferenceable(16) ptr @_ZN7V3Graph8verticesEv(ptr noundef nonnull align 8 dereferenceable(24) %20)
          to label %22 unwind label %87

22:                                               ; preds = %1
  store ptr %21, ptr %13, align 8
  %23 = load ptr, ptr %13, align 8
  %24 = invoke ptr @_ZN6V3ListI13V3GraphVertexXadL_ZNS0_5linksEvEES0_E5beginEv(ptr noundef nonnull align 8 dereferenceable(16) %23)
          to label %25 unwind label %87

25:                                               ; preds = %22
  %26 = getelementptr inbounds %"class.V3List<V3GraphVertex, &V3GraphVertex::links>::SimpleItertatorImpl", ptr %14, i32 0, i32 0
  store ptr %24, ptr %26, align 8
  %27 = load ptr, ptr %13, align 8
  %28 = invoke ptr @_ZN6V3ListI13V3GraphVertexXadL_ZNS0_5linksEvEES0_E3endEv(ptr noundef nonnull align 8 dereferenceable(16) %27)
          to label %29 unwind label %87

29:                                               ; preds = %25
  %30 = getelementptr inbounds %"class.V3List<V3GraphVertex, &V3GraphVertex::links>::SimpleItertatorImpl", ptr %15, i32 0, i32 0
  store ptr %28, ptr %30, align 8
  br label %31

31:                                               ; preds = %85, %29
  store ptr %14, ptr %10, align 8
  store ptr %15, ptr %11, align 8
  %32 = load ptr, ptr %10, align 8
  %33 = load ptr, ptr %32, align 8
  %34 = load ptr, ptr %11, align 8
  %35 = load ptr, ptr %34, align 8
  %36 = icmp ne ptr %33, %35
  br label %37

37:                                               ; preds = %31
  br i1 %36, label %38, label %86

38:                                               ; preds = %37
  store ptr %14, ptr %9, align 8
  %39 = load ptr, ptr %9, align 8
  %40 = load ptr, ptr %39, align 8
  store ptr %40, ptr %6, align 8
  %41 = load ptr, ptr %6, align 8
  store ptr %41, ptr %5, align 8
  %42 = load ptr, ptr %5, align 8
  %43 = call noundef nonnull align 8 dereferenceable(16) ptr @_ZN13V3GraphVertex5linksEv(ptr noundef nonnull align 8 dereferenceable(80) %42)
  br label %44

44:                                               ; preds = %38
  %45 = load ptr, ptr %43, align 8
  br label %46

46:                                               ; preds = %44
  %47 = load ptr, ptr %39, align 8
  store ptr %45, ptr %2, align 8
  store ptr %47, ptr %3, align 8
  %48 = load ptr, ptr %2, align 8
  %49 = icmp ne ptr %48, null
  br i1 %49, label %50, label %52

50:                                               ; preds = %46
  %51 = load ptr, ptr %2, align 8
  br label %54

52:                                               ; preds = %46
  %53 = load ptr, ptr %3, align 8
  br label %54

54:                                               ; preds = %52, %50
  %55 = phi ptr [ %51, %50 ], [ %53, %52 ]
  call void @llvm.prefetch.p0(ptr %55, i32 1, i32 3, i32 1)
  %56 = load ptr, ptr %39, align 8
  br label %57

57:                                               ; preds = %54
  store ptr %56, ptr %16, align 8
  %58 = load ptr, ptr %16, align 8
  %59 = invoke noundef ptr @_ZNK13V3GraphVertex5userpEv(ptr noundef nonnull align 8 dereferenceable(80) %58)
          to label %60 unwind label %87

60:                                               ; preds = %57
  store ptr %59, ptr %17, align 8
  br label %61

61:                                               ; preds = %60
  br label %62

62:                                               ; preds = %61
  %63 = load ptr, ptr %17, align 8
  %64 = icmp eq ptr %63, null
  br i1 %64, label %66, label %65

65:                                               ; preds = %62
  call void @_ZdlPv(ptr noundef %63) #15
  br label %66

66:                                               ; preds = %65, %62
  br label %67

67:                                               ; preds = %66
  br label %68

68:                                               ; preds = %67
  br label %69

69:                                               ; preds = %68
  store ptr null, ptr %17, align 8
  br label %70

70:                                               ; preds = %69
  br label %71

71:                                               ; preds = %70
  br label %72

72:                                               ; preds = %71
  br label %73

73:                                               ; preds = %72
  %74 = load ptr, ptr %16, align 8
  invoke void @_ZN13V3GraphVertex5userpEPv(ptr noundef nonnull align 8 dereferenceable(80) %74, ptr noundef null)
          to label %75 unwind label %87

75:                                               ; preds = %73
  br label %76

76:                                               ; preds = %75
  store ptr %14, ptr %8, align 8
  %77 = load ptr, ptr %8, align 8
  %78 = load ptr, ptr %77, align 8
  store ptr %78, ptr %7, align 8
  %79 = load ptr, ptr %7, align 8
  store ptr %79, ptr %4, align 8
  %80 = load ptr, ptr %4, align 8
  %81 = call noundef nonnull align 8 dereferenceable(16) ptr @_ZN13V3GraphVertex5linksEv(ptr noundef nonnull align 8 dereferenceable(80) %80)
  br label %82

82:                                               ; preds = %76
  %83 = load ptr, ptr %81, align 8
  br label %84

84:                                               ; preds = %82
  store ptr %83, ptr %77, align 8
  br label %85

85:                                               ; preds = %84
  br label %31

86:                                               ; preds = %37
  ret void

87:                                               ; preds = %73, %57, %25, %22, %1
  %88 = landingpad { ptr, i32 }
          catch ptr null
  %89 = extractvalue { ptr, i32 } %88, 0
  call void @__clang_call_terminate(ptr %89) #17
  unreachable
}