; Function Attrs: mustprogress nounwind uwtable
define dso_local void @_ZN16GraphPathCheckerD2Ev(ptr nocapture noundef nonnull readonly align 8 dereferenceable(24) %0) unnamed_addr #5 align 2 personality ptr @__gxx_personality_v0 {
  %2 = load ptr, ptr %0, align 8
  %3 = getelementptr inbounds i8, ptr %2, i64 8
  %.sroa.0.023 = load ptr, ptr %3, align 8
  %.not24 = icmp eq ptr %.sroa.0.023, null
  br i1 %.not24, label %._crit_edge, label %.lr.ph

.lr.ph:                                           ; preds = %1, %11
  %.sroa.0.025 = phi ptr [ %.sroa.0.0, %11 ], [ %.sroa.0.023, %1 ]
  %4 = getelementptr inbounds i8, ptr %.sroa.0.025, i64 8
  %5 = load ptr, ptr %4, align 8
  %.not22 = icmp eq ptr %5, null
  %6 = select i1 %.not22, ptr %.sroa.0.025, ptr %5
  tail call void @llvm.prefetch.p0(ptr nonnull %6, i32 1, i32 3, i32 1)
  %7 = getelementptr inbounds i8, ptr %.sroa.0.025, i64 72
  %8 = load ptr, ptr %7, align 8
  %9 = icmp eq ptr %8, null
  br i1 %9, label %11, label %10

10:                                               ; preds = %.lr.ph
  tail call void @_ZdlPv(ptr noundef nonnull %8) #13
  %.sroa.0.0.pre = load ptr, ptr %4, align 8
  br label %11

11:                                               ; preds = %.lr.ph, %10
  %.sroa.0.0 = phi ptr [ %5, %.lr.ph ], [ %.sroa.0.0.pre, %10 ]
  store ptr null, ptr %7, align 8
  %.not = icmp eq ptr %.sroa.0.0, null
  br i1 %.not, label %._crit_edge, label %.lr.ph

._crit_edge:                                      ; preds = %11, %1
  ret void
}